; Function Attrs: mustprogress nofree norecurse nosync nounwind willreturn memory(argmem: readwrite) uwtable
define dso_local void @_ZN4Luau8Location5shiftERKNS_8PositionES3_S3_(ptr nocapture noundef nonnull align 4 dereferenceable(16) %0, ptr nocapture noundef nonnull readonly align 4 dereferenceable(8) %1, ptr nocapture noundef nonnull readonly align 4 dereferenceable(8) %2, ptr nocapture noundef nonnull readonly align 4 dereferenceable(8) %3) local_unnamed_addr #1 align 2 {
  %5 = getelementptr inbounds i8, ptr %0, i64 4
  %6 = load i32, ptr %5, align 4
  %7 = getelementptr inbounds i8, ptr %1, i64 4
  %8 = load i32, ptr %7, align 4
  %9 = icmp eq i32 %6, %8
  %10 = load i32, ptr %0, align 4
  %11 = load i32, ptr %1, align 4
  %12 = icmp eq i32 %10, %11
  %13 = select i1 %9, i1 %12, i1 false
  br i1 %13, label %_ZNK4Luau8PositiongeERKS0_.exit.thread.i, label %_ZNK4Luau8PositiongeERKS0_.exit.i

_ZNK4Luau8PositiongeERKS0_.exit.i:                ; preds = %4
  %14 = icmp ugt i32 %6, %8
  %15 = icmp ugt i32 %10, %11
  %.0.i.i.i = select i1 %12, i1 %14, i1 %15
  br i1 %.0.i.i.i, label %_ZNK4Luau8PositiongeERKS0_.exit.thread.i, label %_ZN4Luau8Position5shiftERKS0_S2_S2_.exit

_ZNK4Luau8PositiongeERKS0_.exit.thread.i:         ; preds = %_ZNK4Luau8PositiongeERKS0_.exit.i, %4
  %16 = load i32, ptr %2, align 4
  %17 = icmp ugt i32 %10, %16
  %18 = load i32, ptr %3, align 4
  br i1 %17, label %19, label %22

19:                                               ; preds = %_ZNK4Luau8PositiongeERKS0_.exit.thread.i
  %20 = sub i32 %10, %16
  %21 = add i32 %20, %18
  store i32 %21, ptr %0, align 4
  br label %_ZN4Luau8Position5shiftERKS0_S2_S2_.exit

22:                                               ; preds = %_ZNK4Luau8PositiongeERKS0_.exit.thread.i
  store i32 %18, ptr %0, align 4
  %23 = getelementptr inbounds i8, ptr %3, i64 4
  %24 = load i32, ptr %23, align 4
  %25 = getelementptr inbounds i8, ptr %2, i64 4
  %26 = load i32, ptr %25, align 4
  %27 = add i32 %24, %6
  %28 = sub i32 %27, %26
  store i32 %28, ptr %5, align 4
  br label %_ZN4Luau8Position5shiftERKS0_S2_S2_.exit

_ZN4Luau8Position5shiftERKS0_S2_S2_.exit:         ; preds = %_ZNK4Luau8PositiongeERKS0_.exit.i, %19, %22
  %29 = getelementptr inbounds i8, ptr %0, i64 8
  %30 = getelementptr inbounds i8, ptr %0, i64 12
  %31 = load i32, ptr %30, align 4
  %32 = load i32, ptr %7, align 4
  %33 = icmp eq i32 %31, %32
  %34 = load i32, ptr %29, align 4
  %35 = load i32, ptr %1, align 4
  %36 = icmp eq i32 %34, %35
  %37 = select i1 %33, i1 %36, i1 false
  br i1 %37, label %_ZNK4Luau8PositiongeERKS0_.exit.thread.i9, label %_ZNK4Luau8PositiongeERKS0_.exit.i7

_ZNK4Luau8PositiongeERKS0_.exit.i7:               ; preds = %_ZN4Luau8Position5shiftERKS0_S2_S2_.exit
  %38 = icmp ugt i32 %31, %32
  %39 = icmp ugt i32 %34, %35
  %.0.i.i.i8 = select i1 %36, i1 %38, i1 %39
  br i1 %.0.i.i.i8, label %_ZNK4Luau8PositiongeERKS0_.exit.thread.i9, label %_ZN4Luau8Position5shiftERKS0_S2_S2_.exit10

_ZNK4Luau8PositiongeERKS0_.exit.thread.i9:        ; preds = %_ZNK4Luau8PositiongeERKS0_.exit.i7, %_ZN4Luau8Position5shiftERKS0_S2_S2_.exit
  %40 = load i32, ptr %2, align 4
  %41 = icmp ugt i32 %34, %40
  %42 = load i32, ptr %3, align 4
  br i1 %41, label %43, label %46

43:                                               ; preds = %_ZNK4Luau8PositiongeERKS0_.exit.thread.i9
  %44 = sub i32 %34, %40
  %45 = add i32 %44, %42
  store i32 %45, ptr %29, align 4
  br label %_ZN4Luau8Position5shiftERKS0_S2_S2_.exit10

46:                                               ; preds = %_ZNK4Luau8PositiongeERKS0_.exit.thread.i9
  store i32 %42, ptr %29, align 4
  %47 = getelementptr inbounds i8, ptr %3, i64 4
  %48 = load i32, ptr %47, align 4
  %49 = getelementptr inbounds i8, ptr %2, i64 4
  %50 = load i32, ptr %49, align 4
  %51 = add i32 %48, %31
  %52 = sub i32 %51, %50
  store i32 %52, ptr %30, align 4
  br label %_ZN4Luau8Position5shiftERKS0_S2_S2_.exit10

_ZN4Luau8Position5shiftERKS0_S2_S2_.exit10:       ; preds = %_ZNK4Luau8PositiongeERKS0_.exit.i7, %43, %46
  ret void
}